target datalayout = "e-m:e-p270:32:32-p271:32:32-p272:64:64-i64:64-i128:128-f80:128-n8:16:32:64-S128"
target triple = "x86_64-pc-linux-gnu"

%struct.lxb_html_tree = type { ptr, ptr, ptr, ptr, ptr, ptr, ptr, %struct.lxb_html_tree_pending_table_t, ptr, i8, i8, i8, i8, i8, i8, ptr, ptr, ptr, i32, i64 }
%struct.lxb_html_tree_pending_table_t = type { ptr, i8 }
%struct.lxb_html_tokenizer = type { ptr, ptr, ptr, ptr, ptr, ptr, ptr, ptr, ptr, ptr, ptr, ptr, ptr, ptr, ptr, i64, ptr, ptr, ptr, ptr, ptr, i64, i64, ptr, ptr, i64, i64, i32, i32, i8, i32, i32, i8, ptr, i64 }

; Function Attrs: inlinehint nounwind uwtable
define internal void @lxb_html_tokenizer_state_set(ptr noundef %0, ptr noundef %1) #3 {
  %3 = alloca ptr, align 8
  %4 = alloca ptr, align 8
  store ptr %0, ptr %3, align 8, !tbaa !88
  store ptr %1, ptr %4, align 8, !tbaa !9
  %5 = load ptr, ptr %4, align 8, !tbaa !9
  %6 = load ptr, ptr %3, align 8, !tbaa !88
  %7 = getelementptr inbounds nuw %struct.lxb_html_tokenizer, ptr %6, i32 0, i32 0
  store ptr %5, ptr %7, align 8, !tbaa !89
  ret void
}

; Function Attrs: inlinehint nounwind uwtable
define internal void @lxb_html_tokenizer_tmp_tag_id_set(ptr noundef %0, i64 noundef %1) #3 {
  %3 = alloca ptr, align 8
  %4 = alloca i64, align 8
  store ptr %0, ptr %3, align 8, !tbaa !88
  store i64 %1, ptr %4, align 8, !tbaa !50
  %5 = load i64, ptr %4, align 8, !tbaa !50
  %6 = load ptr, ptr %3, align 8, !tbaa !88
  %7 = getelementptr inbounds nuw %struct.lxb_html_tokenizer, ptr %6, i32 0, i32 15
  store i64 %5, ptr %7, align 8, !tbaa !92
  ret void
}

; Function Attrs: inlinehint nounwind uwtable
define internal ptr @lxb_html_tree_insert_html_element(ptr noundef %0, ptr noundef %1) #3 {
  %3 = alloca ptr, align 8
  %4 = alloca ptr, align 8
  store ptr %0, ptr %3, align 8, !tbaa !4
  store ptr %1, ptr %4, align 8, !tbaa !9
  %5 = load ptr, ptr %3, align 8, !tbaa !4
  %6 = load ptr, ptr %4, align 8, !tbaa !9
  %7 = call ptr @lxb_html_tree_insert_foreign_element(ptr noundef %5, ptr noundef %6, i64 noundef 2)
  ret ptr %7
}

; Function Attrs: inlinehint nounwind uwtable
define internal zeroext i1 @lxb_html_tree_insertion_mode_in_body_textarea(ptr noundef %0, ptr noundef %1) #3 {
  %3 = alloca i1, align 1
  %4 = alloca ptr, align 8
  %5 = alloca ptr, align 8
  %6 = alloca ptr, align 8
  %7 = alloca i32, align 4
  store ptr %0, ptr %4, align 8, !tbaa !4
  store ptr %1, ptr %5, align 8, !tbaa !9
  call void @llvm.lifetime.start.p0(i64 8, ptr %6) #5
  %8 = load ptr, ptr %4, align 8, !tbaa !4
  %9 = load ptr, ptr %5, align 8, !tbaa !9
  %10 = call ptr @lxb_html_tree_insert_html_element(ptr noundef %8, ptr noundef %9)
  store ptr %10, ptr %6, align 8, !tbaa !40
  %11 = load ptr, ptr %6, align 8, !tbaa !40
  %12 = icmp eq ptr %11, null
  br i1 %12, label %13, label %18

13:                                               ; preds = %2
  %14 = load ptr, ptr %4, align 8, !tbaa !4
  %15 = getelementptr inbounds nuw %struct.lxb_html_tree, ptr %14, i32 0, i32 18
  store i32 2, ptr %15, align 8, !tbaa !25
  %16 = load ptr, ptr %4, align 8, !tbaa !4
  %17 = call zeroext i1 @lxb_html_tree_process_abort(ptr noundef %16)
  store i1 %17, ptr %3, align 1
  store i32 1, ptr %7, align 4
  br label %34

18:                                               ; preds = %2
  %19 = load ptr, ptr %4, align 8, !tbaa !4
  %20 = getelementptr inbounds nuw %struct.lxb_html_tree, ptr %19, i32 0, i32 0
  %21 = load ptr, ptr %20, align 8, !tbaa !78
  call void @lxb_html_tokenizer_tmp_tag_id_set(ptr noundef %21, i64 noundef 180)
  %22 = load ptr, ptr %4, align 8, !tbaa !4
  %23 = getelementptr inbounds nuw %struct.lxb_html_tree, ptr %22, i32 0, i32 0
  %24 = load ptr, ptr %23, align 8, !tbaa !78
  call void @lxb_html_tokenizer_state_set(ptr noundef %24, ptr noundef @lxb_html_tokenizer_state_rcdata_before)
  %25 = load ptr, ptr %4, align 8, !tbaa !4
  %26 = getelementptr inbounds nuw %struct.lxb_html_tree, ptr %25, i32 0, i32 10
  store i8 0, ptr %26, align 1, !tbaa !28
  %27 = load ptr, ptr %4, align 8, !tbaa !4
  %28 = getelementptr inbounds nuw %struct.lxb_html_tree, ptr %27, i32 0, i32 15
  %29 = load ptr, ptr %28, align 8, !tbaa !20
  %30 = load ptr, ptr %4, align 8, !tbaa !4
  %31 = getelementptr inbounds nuw %struct.lxb_html_tree, ptr %30, i32 0, i32 16
  store ptr %29, ptr %31, align 8, !tbaa !10
  %32 = load ptr, ptr %4, align 8, !tbaa !4
  %33 = getelementptr inbounds nuw %struct.lxb_html_tree, ptr %32, i32 0, i32 15
  store ptr @lxb_html_tree_insertion_mode_in_body_skip_new_line_textarea, ptr %33, align 8, !tbaa !20
  store i1 true, ptr %3, align 1
  store i32 1, ptr %7, align 4
  br label %34

34:                                               ; preds = %18, %13
  call void @llvm.lifetime.end.p0(i64 8, ptr %6) #5
  %35 = load i1, ptr %3, align 1
  ret i1 %35
}