; Function Attrs: inlinehint nounwind uwtable
define internal fastcc zeroext i1 @lxb_html_tree_insertion_mode_in_body_textarea(ptr noundef %0, ptr noundef %1) unnamed_addr #3 {
  %3 = tail call ptr @lxb_html_tree_insert_foreign_element(ptr noundef %0, ptr noundef %1, i64 noundef 2) #6
  %4 = icmp eq ptr %3, null
  br i1 %4, label %5, label %8

5:                                                ; preds = %2
  %6 = getelementptr inbounds nuw i8, ptr %0, i64 112
  store i32 2, ptr %6, align 8, !tbaa !22
  %7 = tail call zeroext i1 @lxb_html_tree_process_abort(ptr noundef %0) #6
  br label %15

8:                                                ; preds = %2
  %9 = load ptr, ptr %0, align 8, !tbaa !67
  %10 = getelementptr inbounds nuw i8, ptr %9, i64 120
  store i64 180, ptr %10, align 8, !tbaa !75
  store ptr @lxb_html_tokenizer_state_rcdata_before, ptr %9, align 8, !tbaa !68
  %11 = getelementptr inbounds nuw i8, ptr %0, i64 81
  store i8 0, ptr %11, align 1, !tbaa !25
  %12 = getelementptr inbounds nuw i8, ptr %0, i64 88
  %13 = load ptr, ptr %12, align 8, !tbaa !17
  %14 = getelementptr inbounds nuw i8, ptr %0, i64 96
  store ptr %13, ptr %14, align 8, !tbaa !4
  store ptr @lxb_html_tree_insertion_mode_in_body_skip_new_line_textarea, ptr %12, align 8, !tbaa !17
  br label %15

15:                                               ; preds = %8, %5
  %.0 = phi i1 [ %7, %5 ], [ true, %8 ]
  ret i1 %.0
}